; Function Attrs: mustprogress uwtable
define void @_ZN6google8protobuf9Timestamp8CopyFromERKS1_(ptr noundef nonnull align 8 dereferenceable(32) %this, ptr noundef nonnull readonly align 8 dereferenceable(32) %from) local_unnamed_addr #3 align 2 {
entry:
  %cmp = icmp eq ptr %from, %this
  br i1 %cmp, label %return, label %if.end

if.end:                                           ; preds = %entry
  %0 = getelementptr inbounds i8, ptr %this, i64 16
  tail call void @llvm.memset.p0.i64(ptr noundef nonnull align 8 dereferenceable(12) %0, i8 0, i64 12, i1 false)
  %_internal_metadata_.i = getelementptr inbounds i8, ptr %this, i64 8
  %1 = load i64, ptr %_internal_metadata_.i, align 8
  %and.i.i = and i64 %1, 1
  %tobool.i.not.i = icmp eq i64 %and.i.i, 0
  br i1 %tobool.i.not.i, label %_ZN6google8protobuf9Timestamp5ClearEv.exit, label %if.then.i.i

if.then.i.i:                                      ; preds = %if.end
  tail call void @_ZN6google8protobuf8internal16InternalMetadata7DoClearINS0_15UnknownFieldSetEEEvv(ptr noundef nonnull align 8 dereferenceable(8) %_internal_metadata_.i)
  br label %_ZN6google8protobuf9Timestamp5ClearEv.exit

_ZN6google8protobuf9Timestamp5ClearEv.exit:       ; preds = %if.end, %if.then.i.i
  %2 = getelementptr inbounds i8, ptr %from, i64 16
  %3 = load i64, ptr %2, align 8
  %cmp.not.i.i = icmp eq i64 %3, 0
  br i1 %cmp.not.i.i, label %if.end.i.i, label %if.then.i.i2

if.then.i.i2:                                     ; preds = %_ZN6google8protobuf9Timestamp5ClearEv.exit
  store i64 %3, ptr %0, align 8
  br label %if.end.i.i

if.end.i.i:                                       ; preds = %if.then.i.i2, %_ZN6google8protobuf9Timestamp5ClearEv.exit
  %nanos_.i.i.i = getelementptr inbounds i8, ptr %from, i64 24
  %4 = load i32, ptr %nanos_.i.i.i, align 8
  %cmp4.not.i.i = icmp eq i32 %4, 0
  br i1 %cmp4.not.i.i, label %if.end7.i.i, label %if.then5.i.i

if.then5.i.i:                                     ; preds = %if.end.i.i
  %nanos_6.i.i = getelementptr inbounds i8, ptr %this, i64 24
  store i32 %4, ptr %nanos_6.i.i, align 8
  br label %if.end7.i.i

if.end7.i.i:                                      ; preds = %if.then5.i.i, %if.end.i.i
  %_internal_metadata_8.i.i = getelementptr inbounds i8, ptr %from, i64 8
  %5 = load i64, ptr %_internal_metadata_8.i.i, align 8
  %and.i13.i.i = and i64 %5, 1
  %tobool.i14.not.i.i = icmp eq i64 %and.i13.i.i, 0
  br i1 %tobool.i14.not.i.i, label %return, label %if.then.i.i.i.i

if.then.i.i.i.i:                                  ; preds = %if.end7.i.i
  %and.i.i.i = and i64 %5, -2
  %6 = inttoptr i64 %and.i.i.i to ptr
  %unknown_fields.i.i.i.i = getelementptr inbounds i8, ptr %6, i64 8
  tail call void @_ZN6google8protobuf8internal16InternalMetadata11DoMergeFromINS0_15UnknownFieldSetEEEvRKT_(ptr noundef nonnull align 8 dereferenceable(8) %_internal_metadata_.i, ptr noundef nonnull align 8 dereferenceable(24) %unknown_fields.i.i.i.i)
  br label %return

return:                                           ; preds = %if.then.i.i.i.i, %if.end7.i.i, %entry
  ret void
}